; Function Attrs: mustprogress nofree uwtable
define noundef i32 @_ZNK2cv16structured_light20GrayCodePattern_Impl9grayToDecERKSt6vectorIhSaIhEE(ptr nocapture noundef nonnull readnone align 8 dereferenceable(56) %0, ptr nocapture noundef nonnull readonly align 8 dereferenceable(24) %1) local_unnamed_addr #12 align 2 {
  %3 = load ptr, ptr %1, align 8
  %4 = load i8, ptr %3, align 1
  %.not = icmp eq i8 %4, 0
  br i1 %.not, label %14, label %5

5:                                                ; preds = %2
  %6 = getelementptr inbounds i8, ptr %1, i64 8
  %7 = load ptr, ptr %6, align 8
  %8 = ptrtoint ptr %7 to i64
  %9 = ptrtoint ptr %3 to i64
  %10 = sub i64 %8, %9
  %11 = trunc i64 %10 to i32
  %12 = add i32 %11, -1
  %ldexp = tail call double @ldexp(double 1.000000e+00, i32 %12)
  %13 = fptosi double %ldexp to i32
  %.pre = load ptr, ptr %1, align 8
  br label %14

14:                                               ; preds = %5, %2
  %15 = phi ptr [ %.pre, %5 ], [ %3, %2 ]
  %.015 = phi i32 [ %13, %5 ], [ 0, %2 ]
  %16 = getelementptr inbounds i8, ptr %1, i64 8
  %17 = load ptr, ptr %16, align 8
  %18 = ptrtoint ptr %17 to i64
  %19 = ptrtoint ptr %15 to i64
  %20 = sub i64 %18, %19
  %21 = trunc i64 %20 to i32
  %22 = icmp sgt i32 %21, 1
  br i1 %22, label %.lr.ph, label %._crit_edge

.lr.ph:                                           ; preds = %14, %35
  %23 = phi ptr [ %36, %35 ], [ %15, %14 ]
  %24 = phi ptr [ %37, %35 ], [ %17, %14 ]
  %indvars.iv = phi i64 [ %indvars.iv.next, %35 ], [ 1, %14 ]
  %25 = phi i64 [ %40, %35 ], [ %20, %14 ]
  %.01419 = phi i8 [ %28, %35 ], [ %4, %14 ]
  %.118 = phi i32 [ %.2, %35 ], [ %.015, %14 ]
  %26 = getelementptr inbounds i8, ptr %23, i64 %indvars.iv
  %27 = load i8, ptr %26, align 1
  %28 = xor i8 %27, %.01419
  %.not16 = icmp eq i8 %.01419, %27
  br i1 %.not16, label %35, label %29

29:                                               ; preds = %.lr.ph
  %30 = xor i64 %indvars.iv, -1
  %31 = add i64 %25, %30
  %32 = trunc i64 %31 to i32
  %ldexp17 = tail call double @ldexp(double 1.000000e+00, i32 %32)
  %33 = fptosi double %ldexp17 to i32
  %34 = add nsw i32 %.118, %33
  %.pre21 = load ptr, ptr %16, align 8
  %.pre22 = load ptr, ptr %1, align 8
  br label %35

35:                                               ; preds = %.lr.ph, %29
  %36 = phi ptr [ %.pre22, %29 ], [ %23, %.lr.ph ]
  %37 = phi ptr [ %.pre21, %29 ], [ %24, %.lr.ph ]
  %.2 = phi i32 [ %34, %29 ], [ %.118, %.lr.ph ]
  %indvars.iv.next = add nuw nsw i64 %indvars.iv, 1
  %38 = ptrtoint ptr %37 to i64
  %39 = ptrtoint ptr %36 to i64
  %40 = sub i64 %38, %39
  %sext = shl i64 %40, 32
  %41 = ashr exact i64 %sext, 32
  %42 = icmp slt i64 %indvars.iv.next, %41
  br i1 %42, label %.lr.ph, label %._crit_edge, !llvm.loop !35

._crit_edge:                                      ; preds = %35, %14
  %.1.lcssa = phi i32 [ %.015, %14 ], [ %.2, %35 ]
  ret i32 %.1.lcssa
}